; Function Attrs: nounwind uwtable
define internal void @LZ4_compressCleanupStream(ptr noundef readonly captures(none) %0) #3 {
  %2 = getelementptr inbounds nuw i8, ptr %0, i64 24
  %3 = load ptr, ptr %2, align 8, !tbaa !63
  %4 = tail call i32 @LZ4_freeStream(ptr noundef %3) #19
  %5 = getelementptr inbounds nuw i8, ptr %0, i64 32
  %6 = load ptr, ptr %5, align 8, !tbaa !64
  %7 = tail call i32 @LZ4_freeStream(ptr noundef %6) #19
  ret void
}